(dp0
(S'000.135.0'
p1
I1
tp2
F1.0
s(S'000.035.0'
p3
I0
tp4
F1.0
s(S'000.085.0'
p5
I0
tp6
F1.0
s(S'000.26.0'
p7
I1
tp8
I0
s(S'000.01.0'
p9
I1
tp10
F1.1600000000000001
s(S'000.00.0'
p11
I0
tp12
F3.45194675261228
s(S'000.095.0'
p13
I0
tp14
F1.0
s(S'000.146.0'
p15
I1
tp16
F1.0
s(S'000.195.0'
p17
I1
tp18
I0
s.