(dp0
(S'000.012.0'
p1
I1
tp2
F1.0
s(S'000.062.0'
p3
I0
tp4
F1.0
s(S'000.133.0'
p5
I1
tp6
F1.0
s(S'000.212.0'
p7
I0
tp8
I0
s(S'000.12.0'
p9
I0
tp10
F1.0
s(S'000.033.0'
p11
I1
tp12
F1.0
s(S'000.183.0'
p13
I0
tp14
F1.0
s(S'000.163.0'
p15
I1
tp16
F1.0
s(S'000.082.0'
p17
I0
tp18
F1.0
s(S'000.00.0'
p19
I0
tp20
F1.795368070053888
s.