(dp0
(S'0000010000'
p1
I0
tp2
F7.617808637574661
s(S'0010000000'
p3
I2
tp4
F3.6270673976681214
s(S'0000000100'
p5
I2
tp6
F9.38823902169285
s(S'1000000000'
p7
I1
tp8
F7.332870137172882
s(S'0000000010'
p9
I2
tp10
F10.360826883160177
s(S'0000001000'
p11
I2
tp12
F8.725990545675517
s(S'0001000000'
p13
I0
tp14
F5.931076752237519
s(S'0000100000'
p15
I0
tp16
F8.827796663583886
s(S'0100000000'
p17
I1
tp18
F9.111201419790255
s(S'0000100000'
p19
I1
tp20
F-1.0237798261044273
s(S'0000000000'
p21
I1
tp22
F-30.605091284413334
s(S'0000100000'
p23
I2
tp24
F-0.0459078774727546
s(S'0000000000'
p25
I0
tp26
F-29.135276045240964
s(S'0001000000'
p27
I1
tp28
F-1.162444722615942
s(S'0000000001'
p29
I1
tp30
F8.888827288902085
s(S'0000000000'
p31
I2
tp32
F-34.46151008123208
s.